target datalayout = "e-m:e-p270:32:32-p271:32:32-p272:64:64-i64:64-i128:128-f80:128-n8:16:32:64-S128"
target triple = "x86_64-pc-linux-gnu"

%struct.lv_ll_t = type { i32, ptr, ptr }
%struct._lv_group_t = type { %struct.lv_ll_t, ptr, ptr, ptr, ptr, i8 }

; Function Attrs: nounwind uwtable
define void @lv_group_focus_freeze(ptr noundef %0, i1 noundef zeroext %1) #0 {
  %3 = alloca ptr, align 8
  %4 = alloca i8, align 1
  store ptr %0, ptr %3, align 8, !tbaa !3
  %5 = zext i1 %1 to i8
  store i8 %5, ptr %4, align 1, !tbaa !44
  br label %6

6:                                                ; preds = %2
  %7 = load ptr, ptr %3, align 8, !tbaa !3
  %8 = icmp ne ptr %7, null
  br i1 %8, label %13, label %9

9:                                                ; preds = %6
  br label %10

10:                                               ; preds = %9
  br label %11

11:                                               ; preds = %10
  br label %12

12:                                               ; preds = %11, %12
  br label %12

13:                                               ; preds = %6
  br label %14

14:                                               ; preds = %13
  %15 = load i8, ptr %4, align 1, !tbaa !44, !range !45, !noundef !46
  %16 = trunc i8 %15 to i1
  %17 = zext i1 %16 to i32
  %18 = icmp eq i32 %17, 0
  br i1 %18, label %19, label %25

19:                                               ; preds = %14
  %20 = load ptr, ptr %3, align 8, !tbaa !3
  %21 = getelementptr inbounds nuw %struct._lv_group_t, ptr %20, i32 0, i32 5
  %22 = load i8, ptr %21, align 8
  %23 = and i8 %22, -2
  %24 = or i8 %23, 0
  store i8 %24, ptr %21, align 8
  br label %31

25:                                               ; preds = %14
  %26 = load ptr, ptr %3, align 8, !tbaa !3
  %27 = getelementptr inbounds nuw %struct._lv_group_t, ptr %26, i32 0, i32 5
  %28 = load i8, ptr %27, align 8
  %29 = and i8 %28, -2
  %30 = or i8 %29, 1
  store i8 %30, ptr %27, align 8
  br label %31

31:                                               ; preds = %25, %19
  ret void
}