; Function Attrs: nofree norecurse nosync nounwind memory(argmem: readwrite) uwtable
define void @lv_group_focus_freeze(ptr noundef %0, i1 noundef zeroext %1) local_unnamed_addr #5 {
  %.not = icmp eq ptr %0, null
  br i1 %.not, label %.preheader, label %3

.preheader:                                       ; preds = %2, %.preheader
  br label %.preheader

3:                                                ; preds = %2
  %4 = getelementptr inbounds nuw i8, ptr %0, i64 56
  %5 = load i8, ptr %4, align 8
  %6 = and i8 %5, -2
  %masksel = zext i1 %1 to i8
  %.sink = or disjoint i8 %6, %masksel
  store i8 %.sink, ptr %4, align 8
  ret void
}